target datalayout = "e-m:e-p270:32:32-p271:32:32-p272:64:64-i64:64-i128:128-f80:128-n8:16:32:64-S128"
target triple = "x86_64-pc-linux-gnu"

%struct.ident_t = type { i32, i32, i32, i32, ptr }
%"class.LightGBM::ScoreUpdater" = type <{ ptr, i32, [4 x i8], ptr, %"class.std::vector.138", i8, [7 x i8] }>
%"class.std::vector.138" = type { %"struct.std::_Vector_base.139" }
%"struct.std::_Vector_base.139" = type { %"struct.std::_Vector_base<double, LightGBM::Common::AlignmentAllocator<double>>::_Vector_impl" }
%"struct.std::_Vector_base<double, LightGBM::Common::AlignmentAllocator<double>>::_Vector_impl" = type { %"struct.std::_Vector_base<double, LightGBM::Common::AlignmentAllocator<double>>::_Vector_impl_data" }
%"struct.std::_Vector_base<double, LightGBM::Common::AlignmentAllocator<double>>::_Vector_impl_data" = type { ptr, ptr, ptr }

@1 = private unnamed_addr constant %struct.ident_t { i32 0, i32 514, i32 0, i32 22, ptr @0 }, align 8

; Function Attrs: mustprogress nounwind uwtable
define linkonce_odr noundef nonnull align 8 dereferenceable(8) ptr @_ZNSt6vectorIdN8LightGBM6Common18AlignmentAllocatorIdLm32EEEEixEm(ptr noundef nonnull align 8 dereferenceable(24) %0, i64 noundef %1) #0 comdat align 2 {
  %3 = alloca ptr, align 8
  %4 = alloca i64, align 8
  store ptr %0, ptr %3, align 8, !tbaa !774
  store i64 %1, ptr %4, align 8, !tbaa !181
  %5 = load ptr, ptr %3, align 8
  %6 = getelementptr inbounds nuw %"struct.std::_Vector_base.139", ptr %5, i32 0, i32 0
  %7 = getelementptr inbounds nuw %"struct.std::_Vector_base<double, LightGBM::Common::AlignmentAllocator<double>>::_Vector_impl_data", ptr %6, i32 0, i32 0
  %8 = load ptr, ptr %7, align 8, !tbaa !776
  %9 = load i64, ptr %4, align 8, !tbaa !181
  %10 = getelementptr inbounds nuw double, ptr %8, i64 %9
  ret ptr %10
}

; Function Attrs: noinline norecurse nounwind uwtable
define internal void @_ZN8LightGBM12ScoreUpdaterC2EPKNS_7DatasetEi.omp_outlined(ptr noalias noundef %0, ptr noalias noundef %1, ptr noundef nonnull align 8 dereferenceable(8) %2, ptr noundef %3, ptr noundef nonnull align 8 dereferenceable(8) %4) #21 {
  %6 = alloca ptr, align 8
  %7 = alloca ptr, align 8
  %8 = alloca ptr, align 8
  %9 = alloca ptr, align 8
  %10 = alloca ptr, align 8
  %11 = alloca i64, align 8
  %12 = alloca i64, align 8
  %13 = alloca i64, align 8
  %14 = alloca i64, align 8
  %15 = alloca i64, align 8
  %16 = alloca i64, align 8
  %17 = alloca i64, align 8
  %18 = alloca i32, align 4
  %19 = alloca i64, align 8
  store ptr %0, ptr %6, align 8, !tbaa !187
  store ptr %1, ptr %7, align 8, !tbaa !187
  store ptr %2, ptr %8, align 8, !tbaa !217
  store ptr %3, ptr %9, align 8, !tbaa !283
  store ptr %4, ptr %10, align 8, !tbaa !650
  %20 = load ptr, ptr %8, align 8, !tbaa !217
  %21 = load ptr, ptr %9, align 8, !tbaa !283
  %22 = load ptr, ptr %10, align 8, !tbaa !650
  call void @llvm.lifetime.start.p0(i64 8, ptr %11) #7
  call void @llvm.lifetime.start.p0(i64 8, ptr %12) #7
  %23 = load i64, ptr %20, align 8, !tbaa !181
  store i64 %23, ptr %12, align 8, !tbaa !181
  call void @llvm.lifetime.start.p0(i64 8, ptr %13) #7
  %24 = load i64, ptr %12, align 8, !tbaa !181
  %25 = sub nsw i64 %24, 0
  %26 = sdiv i64 %25, 1
  %27 = sub nsw i64 %26, 1
  store i64 %27, ptr %13, align 8, !tbaa !181
  call void @llvm.lifetime.start.p0(i64 8, ptr %14) #7
  store i64 0, ptr %14, align 8, !tbaa !181
  call void @llvm.lifetime.end.p0(i64 8, ptr %14) #7
  %28 = load i64, ptr %12, align 8, !tbaa !181
  %29 = icmp slt i64 0, %28
  br i1 %29, label %30, label %81

30:                                               ; preds = %5
  call void @llvm.lifetime.start.p0(i64 8, ptr %15) #7
  store i64 0, ptr %15, align 8, !tbaa !181
  call void @llvm.lifetime.start.p0(i64 8, ptr %16) #7
  %31 = load i64, ptr %13, align 8, !tbaa !181
  store i64 %31, ptr %16, align 8, !tbaa !181
  call void @llvm.lifetime.start.p0(i64 8, ptr %17) #7
  store i64 1, ptr %17, align 8, !tbaa !181
  call void @llvm.lifetime.start.p0(i64 4, ptr %18) #7
  store i32 0, ptr %18, align 4, !tbaa !152
  call void @llvm.lifetime.start.p0(i64 8, ptr %19) #7
  %32 = load ptr, ptr %6, align 8
  %33 = load i32, ptr %32, align 4, !tbaa !152
  call void @__kmpc_for_static_init_8(ptr @1, i32 %33, i32 33, ptr %18, ptr %15, ptr %16, ptr %17, i64 1, i64 512)
  br label %34

34:                                               ; preds = %71, %30
  %35 = load i64, ptr %16, align 8, !tbaa !181
  %36 = load i64, ptr %13, align 8, !tbaa !181
  %37 = icmp sgt i64 %35, %36
  br i1 %37, label %38, label %40

38:                                               ; preds = %34
  %39 = load i64, ptr %13, align 8, !tbaa !181
  br label %42

40:                                               ; preds = %34
  %41 = load i64, ptr %16, align 8, !tbaa !181
  br label %42

42:                                               ; preds = %40, %38
  %43 = phi i64 [ %39, %38 ], [ %41, %40 ]
  store i64 %43, ptr %16, align 8, !tbaa !181
  %44 = load i64, ptr %15, align 8, !tbaa !181
  store i64 %44, ptr %11, align 8, !tbaa !181
  %45 = load i64, ptr %11, align 8, !tbaa !181
  %46 = load i64, ptr %16, align 8, !tbaa !181
  %47 = icmp sle i64 %45, %46
  br i1 %47, label %49, label %48

48:                                               ; preds = %42
  br label %78

49:                                               ; preds = %42
  br label %50

50:                                               ; preds = %67, %49
  %51 = load i64, ptr %11, align 8, !tbaa !181
  %52 = load i64, ptr %16, align 8, !tbaa !181
  %53 = icmp sle i64 %51, %52
  br i1 %53, label %55, label %54

54:                                               ; preds = %50
  br label %70

55:                                               ; preds = %50
  %56 = load i64, ptr %11, align 8, !tbaa !181
  %57 = mul nsw i64 %56, 1
  %58 = add nsw i64 0, %57
  store i64 %58, ptr %19, align 8, !tbaa !181
  %59 = load ptr, ptr %22, align 8, !tbaa !202
  %60 = load i64, ptr %19, align 8, !tbaa !181
  %61 = getelementptr inbounds double, ptr %59, i64 %60
  %62 = load double, ptr %61, align 8, !tbaa !184
  %63 = getelementptr inbounds nuw %"class.LightGBM::ScoreUpdater", ptr %21, i32 0, i32 4
  %64 = load i64, ptr %19, align 8, !tbaa !181
  %65 = call noundef nonnull align 8 dereferenceable(8) ptr @_ZNSt6vectorIdN8LightGBM6Common18AlignmentAllocatorIdLm32EEEEixEm(ptr noundef nonnull align 8 dereferenceable(24) %63, i64 noundef %64) #7
  store double %62, ptr %65, align 8, !tbaa !184
  br label %66

66:                                               ; preds = %55
  br label %67

67:                                               ; preds = %66
  %68 = load i64, ptr %11, align 8, !tbaa !181
  %69 = add nsw i64 %68, 1
  store i64 %69, ptr %11, align 8, !tbaa !181
  br label %50

70:                                               ; preds = %54
  br label %71

71:                                               ; preds = %70
  %72 = load i64, ptr %15, align 8, !tbaa !181
  %73 = load i64, ptr %17, align 8, !tbaa !181
  %74 = add nsw i64 %72, %73
  store i64 %74, ptr %15, align 8, !tbaa !181
  %75 = load i64, ptr %16, align 8, !tbaa !181
  %76 = load i64, ptr %17, align 8, !tbaa !181
  %77 = add nsw i64 %75, %76
  store i64 %77, ptr %16, align 8, !tbaa !181
  br label %34

78:                                               ; preds = %48
  %79 = load ptr, ptr %6, align 8
  %80 = load i32, ptr %79, align 4, !tbaa !152
  call void @__kmpc_for_static_fini(ptr @1, i32 %80)
  call void @llvm.lifetime.end.p0(i64 8, ptr %19) #7
  call void @llvm.lifetime.end.p0(i64 4, ptr %18) #7
  call void @llvm.lifetime.end.p0(i64 8, ptr %17) #7
  call void @llvm.lifetime.end.p0(i64 8, ptr %16) #7
  call void @llvm.lifetime.end.p0(i64 8, ptr %15) #7
  br label %81

81:                                               ; preds = %78, %5
  call void @llvm.lifetime.end.p0(i64 8, ptr %13) #7
  call void @llvm.lifetime.end.p0(i64 8, ptr %12) #7
  call void @llvm.lifetime.end.p0(i64 8, ptr %11) #7
  ret void
}