; Function Attrs: noinline norecurse nounwind uwtable
define internal void @_ZN8LightGBM12ScoreUpdaterC2EPKNS_7DatasetEi.omp_outlined(ptr noalias noundef readonly captures(none) %0, ptr noalias readnone captures(none) %1, ptr noundef nonnull readonly align 8 captures(none) dereferenceable(8) %2, ptr noundef readonly captures(none) %3, ptr noundef nonnull readonly align 8 captures(none) dereferenceable(8) %4) #22 {
  %6 = alloca i64, align 8
  %7 = alloca i64, align 8
  %8 = alloca i64, align 8
  %9 = alloca i32, align 4
  %10 = load i64, ptr %2, align 8, !tbaa !223
  %11 = add nsw i64 %10, -1
  %12 = icmp sgt i64 %10, 0
  br i1 %12, label %13, label %32

13:                                               ; preds = %5
  call void @llvm.lifetime.start.p0(i64 8, ptr nonnull %6) #23
  store i64 0, ptr %6, align 8, !tbaa !223
  call void @llvm.lifetime.start.p0(i64 8, ptr nonnull %7) #23
  store i64 %11, ptr %7, align 8, !tbaa !223
  call void @llvm.lifetime.start.p0(i64 8, ptr nonnull %8) #23
  store i64 1, ptr %8, align 8, !tbaa !223
  call void @llvm.lifetime.start.p0(i64 4, ptr nonnull %9) #23
  store i32 0, ptr %9, align 4, !tbaa !174
  %14 = load i32, ptr %0, align 4, !tbaa !174
  call void @__kmpc_for_static_init_8(ptr nonnull @1, i32 %14, i32 33, ptr nonnull %9, ptr nonnull %6, ptr nonnull %7, ptr nonnull %8, i64 1, i64 512)
  %.promoted = load i64, ptr %7, align 8, !tbaa !223
  %.promoted18 = load i64, ptr %6, align 8, !tbaa !223
  %15 = call i64 @llvm.smin.i64(i64 %.promoted, i64 %11)
  %.not19 = icmp sgt i64 %.promoted18, %15
  br i1 %.not19, label %31, label %.preheader.lr.ph

.preheader.lr.ph:                                 ; preds = %13
  %16 = load ptr, ptr %4, align 8, !tbaa !151
  %17 = getelementptr inbounds nuw i8, ptr %3, i64 24
  %18 = load ptr, ptr %17, align 8, !tbaa !487
  %19 = load i64, ptr %8, align 8, !tbaa !223
  br label %.preheader

.preheader:                                       ; preds = %.preheader.lr.ph, %27
  %20 = phi i64 [ %15, %.preheader.lr.ph ], [ %30, %27 ]
  %21 = phi i64 [ %.promoted18, %.preheader.lr.ph ], [ %28, %27 ]
  br label %22

22:                                               ; preds = %.preheader, %22
  %.017 = phi i64 [ %21, %.preheader ], [ %26, %22 ]
  %23 = getelementptr inbounds double, ptr %16, i64 %.017
  %24 = load double, ptr %23, align 8, !tbaa !314
  %25 = getelementptr inbounds nuw double, ptr %18, i64 %.017
  store double %24, ptr %25, align 8, !tbaa !314
  %26 = add nsw i64 %.017, 1
  %.not16.not = icmp slt i64 %.017, %20
  br i1 %.not16.not, label %22, label %27

27:                                               ; preds = %22
  %28 = add nsw i64 %19, %21
  %29 = add nsw i64 %19, %20
  %30 = call i64 @llvm.smin.i64(i64 %29, i64 %11)
  %.not = icmp sgt i64 %28, %30
  br i1 %.not, label %._crit_edge, label %.preheader

._crit_edge:                                      ; preds = %27
  store i64 %28, ptr %6, align 8, !tbaa !223
  br label %31

31:                                               ; preds = %._crit_edge, %13
  %.lcssa = phi i64 [ %30, %._crit_edge ], [ %15, %13 ]
  store i64 %.lcssa, ptr %7, align 8, !tbaa !223
  call void @__kmpc_for_static_fini(ptr nonnull @1, i32 %14)
  call void @llvm.lifetime.end.p0(i64 4, ptr nonnull %9) #23
  call void @llvm.lifetime.end.p0(i64 8, ptr nonnull %8) #23
  call void @llvm.lifetime.end.p0(i64 8, ptr nonnull %7) #23
  call void @llvm.lifetime.end.p0(i64 8, ptr nonnull %6) #23
  br label %32

32:                                               ; preds = %31, %5
  ret void
}